; Function Attrs: mustprogress uwtable
define void @_ZN4base8internal14AppendToStringERKNS_16BasicStringPieceINSt7__cxx1112basic_stringIcSt11char_traitsIcESaIcEEEEEPS7_(ptr noundef nonnull readonly align 8 captures(none) dereferenceable(16) %0, ptr noundef %1) local_unnamed_addr #1 personality ptr @__gxx_personality_v0 {
  %3 = getelementptr inbounds nuw i8, ptr %0, i64 8
  %4 = load i64, ptr %3, align 8, !tbaa !10
  %5 = icmp eq i64 %4, 0
  br i1 %5, label %_ZN4base8internal15AppendToStringTINSt7__cxx1112basic_stringIcSt11char_traitsIcESaIcEEEEEvRKNS_16BasicStringPieceIT_EEPS9_.exit, label %6

6:                                                ; preds = %2
  %7 = getelementptr inbounds nuw i8, ptr %1, i64 8
  %8 = load i64, ptr %7, align 8, !tbaa !14
  %9 = sub i64 4611686018427387903, %8
  %10 = icmp ult i64 %9, %4
  br i1 %10, label %11, label %_ZNSt7__cxx1112basic_stringIcSt11char_traitsIcESaIcEE6appendEPKcm.exit.i

11:                                               ; preds = %6
  tail call void @_ZSt20__throw_length_errorPKc(ptr noundef nonnull @.str.1) #16
  unreachable

_ZNSt7__cxx1112basic_stringIcSt11char_traitsIcESaIcEE6appendEPKcm.exit.i: ; preds = %6
  %12 = load ptr, ptr %0, align 8, !tbaa !3
  %13 = tail call noundef nonnull align 8 dereferenceable(32) ptr @_ZNSt7__cxx1112basic_stringIcSt11char_traitsIcESaIcEE9_M_appendEPKcm(ptr noundef nonnull align 8 dereferenceable(32) %1, ptr noundef %12, i64 noundef %4)
  br label %_ZN4base8internal15AppendToStringTINSt7__cxx1112basic_stringIcSt11char_traitsIcESaIcEEEEEvRKNS_16BasicStringPieceIT_EEPS9_.exit

_ZN4base8internal15AppendToStringTINSt7__cxx1112basic_stringIcSt11char_traitsIcESaIcEEEEEvRKNS_16BasicStringPieceIT_EEPS9_.exit: ; preds = %2, %_ZNSt7__cxx1112basic_stringIcSt11char_traitsIcESaIcEE6appendEPKcm.exit.i
  ret void
}